target datalayout = "e-m:e-p270:32:32-p271:32:32-p272:64:64-i64:64-i128:128-f80:128-n8:16:32:64-S128"
target triple = "x86_64-pc-linux-gnu"

@.str.8 = private unnamed_addr constant [14 x i8] c"lsrefs.unborn\00", align 1
@.str.9 = private unnamed_addr constant [10 x i8] c"advertise\00", align 1
@.str.10 = private unnamed_addr constant [6 x i8] c"allow\00", align 1
@.str.11 = private unnamed_addr constant [7 x i8] c"ignore\00", align 1
@.str.12 = private unnamed_addr constant [29 x i8] c"invalid value for '%s': '%s'\00", align 1

; Function Attrs: nounwind uwtable
define internal i32 @unborn_config(ptr noundef %0) #0 {
  %2 = alloca i32, align 4
  %3 = alloca ptr, align 8
  %4 = alloca ptr, align 8
  %5 = alloca i32, align 4
  store ptr %0, ptr %3, align 8, !tbaa !4
  call void @llvm.lifetime.start.p0(i64 8, ptr %4) #9
  store ptr null, ptr %4, align 8, !tbaa !18
  %6 = load ptr, ptr %3, align 8, !tbaa !4
  %7 = call i32 @repo_config_get_string_tmp(ptr noundef %6, ptr noundef @.str.8, ptr noundef %4)
  %8 = icmp ne i32 %7, 0
  br i1 %8, label %9, label %10

9:                                                ; preds = %1
  store i32 2, ptr %2, align 4
  store i32 1, ptr %5, align 4
  br label %28

10:                                               ; preds = %1
  %11 = load ptr, ptr %4, align 8, !tbaa !18
  %12 = call i32 @strcmp(ptr noundef %11, ptr noundef @.str.9) #10
  %13 = icmp ne i32 %12, 0
  br i1 %13, label %15, label %14

14:                                               ; preds = %10
  store i32 2, ptr %2, align 4
  store i32 1, ptr %5, align 4
  br label %28

15:                                               ; preds = %10
  %16 = load ptr, ptr %4, align 8, !tbaa !18
  %17 = call i32 @strcmp(ptr noundef %16, ptr noundef @.str.10) #10
  %18 = icmp ne i32 %17, 0
  br i1 %18, label %20, label %19

19:                                               ; preds = %15
  store i32 1, ptr %2, align 4
  store i32 1, ptr %5, align 4
  br label %28

20:                                               ; preds = %15
  %21 = load ptr, ptr %4, align 8, !tbaa !18
  %22 = call i32 @strcmp(ptr noundef %21, ptr noundef @.str.11) #10
  %23 = icmp ne i32 %22, 0
  br i1 %23, label %25, label %24

24:                                               ; preds = %20
  store i32 0, ptr %2, align 4
  store i32 1, ptr %5, align 4
  br label %28

25:                                               ; preds = %20
  %26 = call ptr @_(ptr noundef @.str.12)
  %27 = load ptr, ptr %4, align 8, !tbaa !18
  call void (ptr, ...) @die(ptr noundef %26, ptr noundef @.str.8, ptr noundef %27) #11
  unreachable

28:                                               ; preds = %24, %19, %14, %9
  call void @llvm.lifetime.end.p0(i64 8, ptr %4) #9
  %29 = load i32, ptr %2, align 4
  ret i32 %29
}