; Function Attrs: nounwind uwtable
define internal fastcc range(i32 0, 3) i32 @unborn_config(ptr noundef %0) unnamed_addr #0 {
  %2 = alloca ptr, align 8
  call void @llvm.lifetime.start.p0(i64 8, ptr nonnull %2) #10
  store ptr null, ptr %2, align 8, !tbaa !32
  %3 = call i32 @repo_config_get_string_tmp(ptr noundef %0, ptr noundef nonnull @.str.8, ptr noundef nonnull %2) #10
  %.not = icmp eq i32 %3, 0
  br i1 %.not, label %4, label %14

4:                                                ; preds = %1
  %5 = load ptr, ptr %2, align 8, !tbaa !32
  %6 = call i32 @strcmp(ptr noundef nonnull dereferenceable(1) %5, ptr noundef nonnull dereferenceable(10) @.str.9) #11
  %.not1 = icmp eq i32 %6, 0
  br i1 %.not1, label %14, label %7

7:                                                ; preds = %4
  %8 = call i32 @strcmp(ptr noundef nonnull dereferenceable(1) %5, ptr noundef nonnull dereferenceable(6) @.str.10) #11
  %.not2 = icmp eq i32 %8, 0
  br i1 %.not2, label %14, label %9

9:                                                ; preds = %7
  %10 = call i32 @strcmp(ptr noundef nonnull dereferenceable(1) %5, ptr noundef nonnull dereferenceable(7) @.str.11) #11
  %.not3 = icmp eq i32 %10, 0
  br i1 %.not3, label %14, label %11

11:                                               ; preds = %9
  %12 = call fastcc ptr @_(ptr noundef nonnull @.str.12)
  %13 = load ptr, ptr %2, align 8, !tbaa !32
  call void (ptr, ...) @die(ptr noundef %12, ptr noundef nonnull @.str.8, ptr noundef %13) #12
  unreachable

14:                                               ; preds = %9, %7, %4, %1
  %.0 = phi i32 [ 2, %1 ], [ 2, %4 ], [ 1, %7 ], [ 0, %9 ]
  call void @llvm.lifetime.end.p0(i64 8, ptr nonnull %2) #10
  ret i32 %.0
}